target datalayout = "e-m:e-p270:32:32-p271:32:32-p272:64:64-i64:64-i128:128-f80:128-n8:16:32:64-S128"
target triple = "x86_64-pc-linux-gnu"

%struct.asn1_object_st = type { ptr, ptr, i32, i32, ptr, i32 }

@.str = private unnamed_addr constant [34 x i8] c"../openssl/crypto/asn1/a_object.c\00", align 1

; Function Attrs: nounwind uwtable
define i32 @i2d_ASN1_OBJECT(ptr noundef %0, ptr noundef %1) #0 {
  %3 = alloca i32, align 4
  %4 = alloca ptr, align 8
  %5 = alloca ptr, align 8
  %6 = alloca ptr, align 8
  %7 = alloca ptr, align 8
  %8 = alloca i32, align 4
  %9 = alloca i32, align 4
  store ptr %0, ptr %4, align 8, !tbaa !3
  store ptr %1, ptr %5, align 8, !tbaa !8
  call void @llvm.lifetime.start.p0(i64 8, ptr %6) #5
  call void @llvm.lifetime.start.p0(i64 8, ptr %7) #5
  store ptr null, ptr %7, align 8, !tbaa !10
  call void @llvm.lifetime.start.p0(i64 4, ptr %8) #5
  %10 = load ptr, ptr %4, align 8, !tbaa !3
  %11 = icmp eq ptr %10, null
  br i1 %11, label %17, label %12

12:                                               ; preds = %2
  %13 = load ptr, ptr %4, align 8, !tbaa !3
  %14 = getelementptr inbounds nuw %struct.asn1_object_st, ptr %13, i32 0, i32 4
  %15 = load ptr, ptr %14, align 8, !tbaa !12
  %16 = icmp eq ptr %15, null
  br i1 %16, label %17, label %18

17:                                               ; preds = %12, %2
  store i32 0, ptr %3, align 4
  store i32 1, ptr %9, align 4
  br label %71

18:                                               ; preds = %12
  %19 = load ptr, ptr %4, align 8, !tbaa !3
  %20 = getelementptr inbounds nuw %struct.asn1_object_st, ptr %19, i32 0, i32 3
  %21 = load i32, ptr %20, align 4, !tbaa !15
  %22 = call i32 @ASN1_object_size(i32 noundef 0, i32 noundef %21, i32 noundef 6)
  store i32 %22, ptr %8, align 4, !tbaa !16
  %23 = load ptr, ptr %5, align 8, !tbaa !8
  %24 = icmp eq ptr %23, null
  br i1 %24, label %28, label %25

25:                                               ; preds = %18
  %26 = load i32, ptr %8, align 4, !tbaa !16
  %27 = icmp eq i32 %26, -1
  br i1 %27, label %28, label %30

28:                                               ; preds = %25, %18
  %29 = load i32, ptr %8, align 4, !tbaa !16
  store i32 %29, ptr %3, align 4
  store i32 1, ptr %9, align 4
  br label %71

30:                                               ; preds = %25
  %31 = load ptr, ptr %5, align 8, !tbaa !8
  %32 = load ptr, ptr %31, align 8, !tbaa !10
  %33 = icmp eq ptr %32, null
  br i1 %33, label %34, label %41

34:                                               ; preds = %30
  %35 = load i32, ptr %8, align 4, !tbaa !16
  %36 = sext i32 %35 to i64
  %37 = call noalias ptr @CRYPTO_malloc(i64 noundef %36, ptr noundef @.str, i32 noundef 34)
  store ptr %37, ptr %7, align 8, !tbaa !10
  store ptr %37, ptr %6, align 8, !tbaa !10
  %38 = icmp eq ptr %37, null
  br i1 %38, label %39, label %40

39:                                               ; preds = %34
  store i32 0, ptr %3, align 4
  store i32 1, ptr %9, align 4
  br label %71

40:                                               ; preds = %34
  br label %44

41:                                               ; preds = %30
  %42 = load ptr, ptr %5, align 8, !tbaa !8
  %43 = load ptr, ptr %42, align 8, !tbaa !10
  store ptr %43, ptr %6, align 8, !tbaa !10
  br label %44

44:                                               ; preds = %41, %40
  %45 = load ptr, ptr %4, align 8, !tbaa !3
  %46 = getelementptr inbounds nuw %struct.asn1_object_st, ptr %45, i32 0, i32 3
  %47 = load i32, ptr %46, align 4, !tbaa !15
  call void @ASN1_put_object(ptr noundef %6, i32 noundef 0, i32 noundef %47, i32 noundef 6, i32 noundef 0)
  %48 = load ptr, ptr %6, align 8, !tbaa !10
  %49 = load ptr, ptr %4, align 8, !tbaa !3
  %50 = getelementptr inbounds nuw %struct.asn1_object_st, ptr %49, i32 0, i32 4
  %51 = load ptr, ptr %50, align 8, !tbaa !12
  %52 = load ptr, ptr %4, align 8, !tbaa !3
  %53 = getelementptr inbounds nuw %struct.asn1_object_st, ptr %52, i32 0, i32 3
  %54 = load i32, ptr %53, align 4, !tbaa !15
  %55 = sext i32 %54 to i64
  call void @llvm.memcpy.p0.p0.i64(ptr align 1 %48, ptr align 1 %51, i64 %55, i1 false)
  %56 = load ptr, ptr %7, align 8, !tbaa !10
  %57 = icmp ne ptr %56, null
  br i1 %57, label %58, label %60

58:                                               ; preds = %44
  %59 = load ptr, ptr %7, align 8, !tbaa !10
  br label %67

60:                                               ; preds = %44
  %61 = load ptr, ptr %6, align 8, !tbaa !10
  %62 = load ptr, ptr %4, align 8, !tbaa !3
  %63 = getelementptr inbounds nuw %struct.asn1_object_st, ptr %62, i32 0, i32 3
  %64 = load i32, ptr %63, align 4, !tbaa !15
  %65 = sext i32 %64 to i64
  %66 = getelementptr inbounds i8, ptr %61, i64 %65
  br label %67

67:                                               ; preds = %60, %58
  %68 = phi ptr [ %59, %58 ], [ %66, %60 ]
  %69 = load ptr, ptr %5, align 8, !tbaa !8
  store ptr %68, ptr %69, align 8, !tbaa !10
  %70 = load i32, ptr %8, align 4, !tbaa !16
  store i32 %70, ptr %3, align 4
  store i32 1, ptr %9, align 4
  br label %71

71:                                               ; preds = %67, %39, %28, %17
  call void @llvm.lifetime.end.p0(i64 4, ptr %8) #5
  call void @llvm.lifetime.end.p0(i64 8, ptr %7) #5
  call void @llvm.lifetime.end.p0(i64 8, ptr %6) #5
  %72 = load i32, ptr %3, align 4
  ret i32 %72
}