; Function Attrs: nounwind uwtable
define i32 @i2d_ASN1_OBJECT(ptr noundef readonly captures(address_is_null) %0, ptr noundef captures(address_is_null) %1) local_unnamed_addr #0 {
  %3 = alloca ptr, align 8
  call void @llvm.lifetime.start.p0(i64 8, ptr nonnull %3) #6
  %4 = icmp eq ptr %0, null
  br i1 %4, label %36, label %5

5:                                                ; preds = %2
  %6 = getelementptr inbounds nuw i8, ptr %0, i64 24
  %7 = load ptr, ptr %6, align 8, !tbaa !3
  %8 = icmp eq ptr %7, null
  br i1 %8, label %36, label %9

9:                                                ; preds = %5
  %10 = getelementptr inbounds nuw i8, ptr %0, i64 20
  %11 = load i32, ptr %10, align 4, !tbaa !10
  %12 = tail call i32 @ASN1_object_size(i32 noundef 0, i32 noundef %11, i32 noundef 6) #6
  %13 = icmp eq ptr %1, null
  %14 = icmp eq i32 %12, -1
  %or.cond = select i1 %13, i1 true, i1 %14
  br i1 %or.cond, label %36, label %15

15:                                               ; preds = %9
  %16 = load ptr, ptr %1, align 8, !tbaa !11
  %17 = icmp eq ptr %16, null
  br i1 %17, label %18, label %22

18:                                               ; preds = %15
  %19 = sext i32 %12 to i64
  %20 = tail call noalias ptr @CRYPTO_malloc(i64 noundef %19, ptr noundef nonnull @.str, i32 noundef 34) #6
  store ptr %20, ptr %3, align 8, !tbaa !11
  %21 = icmp eq ptr %20, null
  br i1 %21, label %36, label %23

22:                                               ; preds = %15
  store ptr %16, ptr %3, align 8, !tbaa !11
  br label %23

23:                                               ; preds = %18, %22
  %.018 = phi ptr [ %20, %18 ], [ null, %22 ]
  %24 = load i32, ptr %10, align 4, !tbaa !10
  call void @ASN1_put_object(ptr noundef nonnull %3, i32 noundef 0, i32 noundef %24, i32 noundef 6, i32 noundef 0) #6
  %25 = load ptr, ptr %3, align 8, !tbaa !11
  %26 = load ptr, ptr %6, align 8, !tbaa !3
  %27 = load i32, ptr %10, align 4, !tbaa !10
  %28 = sext i32 %27 to i64
  call void @llvm.memcpy.p0.p0.i64(ptr align 1 %25, ptr align 1 %26, i64 %28, i1 false)
  %.not = icmp eq ptr %.018, null
  br i1 %.not, label %29, label %34

29:                                               ; preds = %23
  %30 = load ptr, ptr %3, align 8, !tbaa !11
  %31 = load i32, ptr %10, align 4, !tbaa !10
  %32 = sext i32 %31 to i64
  %33 = getelementptr inbounds i8, ptr %30, i64 %32
  br label %34

34:                                               ; preds = %23, %29
  %35 = phi ptr [ %33, %29 ], [ %.018, %23 ]
  store ptr %35, ptr %1, align 8, !tbaa !11
  br label %36

36:                                               ; preds = %18, %9, %2, %5, %34
  %.0 = phi i32 [ %12, %34 ], [ 0, %5 ], [ 0, %2 ], [ %12, %9 ], [ 0, %18 ]
  call void @llvm.lifetime.end.p0(i64 8, ptr nonnull %3) #6
  ret i32 %.0
}